target datalayout = "e-m:e-p270:32:32-p271:32:32-p272:64:64-i64:64-i128:128-f80:128-n8:16:32:64-S128"
target triple = "x86_64-pc-linux-gnu"

%struct.strbuf = type { i64, i64, ptr }
%struct.apply_state = type { ptr, %struct.lock_file, i32, i32, i32, i32, i32, i32, i32, i32, i32, i32, i32, i32, i32, i32, i32, i32, i32, ptr, ptr, i32, i32, ptr, ptr, i32, %struct.strbuf, i32, i32, i32, %struct.string_list, i32, i32, %struct.strset, %struct.strset, i32, i32, %struct.string_list, ptr, ptr, i32, i32, ptr, i32, i32, i32 }
%struct.lock_file = type { ptr }
%struct.strset = type { %struct.strmap }
%struct.strmap = type { %struct.hashmap, ptr, i8 }
%struct.hashmap = type { ptr, ptr, ptr, i32, i32, i32, i32, i8 }
%struct.string_list = type { ptr, i64, i64, i8, ptr }

; Function Attrs: inlinehint nounwind uwtable
define internal void @strset_clear(ptr noundef %0) #3 {
  %2 = alloca ptr, align 8
  store ptr %0, ptr %2, align 8, !tbaa !36
  %3 = load ptr, ptr %2, align 8, !tbaa !36
  %4 = getelementptr inbounds nuw %struct.strset, ptr %3, i32 0, i32 0
  call void @strmap_clear(ptr noundef %4, i32 noundef 0)
  ret void
}

; Function Attrs: nounwind uwtable
define dso_local void @clear_apply_state(ptr noundef %0) #0 {
  %2 = alloca ptr, align 8
  store ptr %0, ptr %2, align 8, !tbaa !4
  %3 = load ptr, ptr %2, align 8, !tbaa !4
  %4 = getelementptr inbounds nuw %struct.apply_state, ptr %3, i32 0, i32 30
  call void @string_list_clear(ptr noundef %4, i32 noundef 0)
  %5 = load ptr, ptr %2, align 8, !tbaa !4
  %6 = getelementptr inbounds nuw %struct.apply_state, ptr %5, i32 0, i32 33
  call void @strset_clear(ptr noundef %6)
  %7 = load ptr, ptr %2, align 8, !tbaa !4
  %8 = getelementptr inbounds nuw %struct.apply_state, ptr %7, i32 0, i32 34
  call void @strset_clear(ptr noundef %8)
  %9 = load ptr, ptr %2, align 8, !tbaa !4
  %10 = getelementptr inbounds nuw %struct.apply_state, ptr %9, i32 0, i32 26
  call void @strbuf_release(ptr noundef %10)
  br label %11

11:                                               ; preds = %1
  %12 = load ptr, ptr %2, align 8, !tbaa !4
  %13 = getelementptr inbounds nuw %struct.apply_state, ptr %12, i32 0, i32 23
  %14 = load ptr, ptr %13, align 8, !tbaa !38
  call void @free(ptr noundef %14) #12
  %15 = load ptr, ptr %2, align 8, !tbaa !4
  %16 = getelementptr inbounds nuw %struct.apply_state, ptr %15, i32 0, i32 23
  store ptr null, ptr %16, align 8, !tbaa !38
  br label %17

17:                                               ; preds = %11
  ret void
}