; Function Attrs: nounwind uwtable
define dso_local void @clear_apply_state(ptr noundef %0) local_unnamed_addr #0 {
  %2 = getelementptr inbounds nuw i8, ptr %0, i64 176
  tail call void @string_list_clear(ptr noundef nonnull %2, i32 noundef 0) #21
  %3 = getelementptr inbounds nuw i8, ptr %0, i64 224
  tail call void @strmap_clear(ptr noundef nonnull %3, i32 noundef 0) #21
  %4 = getelementptr inbounds nuw i8, ptr %0, i64 288
  tail call void @strmap_clear(ptr noundef nonnull %4, i32 noundef 0) #21
  %5 = getelementptr inbounds nuw i8, ptr %0, i64 136
  tail call void @strbuf_release(ptr noundef nonnull %5) #21
  %6 = getelementptr inbounds nuw i8, ptr %0, i64 112
  %7 = load ptr, ptr %6, align 8, !tbaa !35
  tail call void @free(ptr noundef %7) #21
  store ptr null, ptr %6, align 8, !tbaa !35
  ret void
}